
Toggle_LED_cortex_m3.elf:     file format elf32-littlearm


Disassembly of section .text:

08000000 <main>:
 8000000:	b480      	push	{r7}
 8000002:	b083      	sub	sp, #12
 8000004:	af00      	add	r7, sp, #0
 8000006:	f241 0318 	movw	r3, #4120	; 0x1018
 800000a:	f2c4 0302 	movt	r3, #16386	; 0x4002
 800000e:	f241 0218 	movw	r2, #4120	; 0x1018
 8000012:	f2c4 0202 	movt	r2, #16386	; 0x4002
 8000016:	6812      	ldr	r2, [r2, #0]
 8000018:	f042 0204 	orr.w	r2, r2, #4
 800001c:	601a      	str	r2, [r3, #0]
 800001e:	f640 0304 	movw	r3, #2052	; 0x804
 8000022:	f2c4 0301 	movt	r3, #16385	; 0x4001
 8000026:	f640 0204 	movw	r2, #2052	; 0x804
 800002a:	f2c4 0201 	movt	r2, #16385	; 0x4001
 800002e:	6812      	ldr	r2, [r2, #0]
 8000030:	f422 1280 	bic.w	r2, r2, #1048576	; 0x100000
 8000034:	601a      	str	r2, [r3, #0]
 8000036:	f640 0304 	movw	r3, #2052	; 0x804
 800003a:	f2c4 0301 	movt	r3, #16385	; 0x4001
 800003e:	f640 0204 	movw	r2, #2052	; 0x804
 8000042:	f2c4 0201 	movt	r2, #16385	; 0x4001
 8000046:	6812      	ldr	r2, [r2, #0]
 8000048:	f442 1200 	orr.w	r2, r2, #2097152	; 0x200000
 800004c:	601a      	str	r2, [r3, #0]
 800004e:	f640 0304 	movw	r3, #2052	; 0x804
 8000052:	f2c4 0301 	movt	r3, #16385	; 0x4001
 8000056:	f640 0204 	movw	r2, #2052	; 0x804
 800005a:	f2c4 0201 	movt	r2, #16385	; 0x4001
 800005e:	6812      	ldr	r2, [r2, #0]
 8000060:	f422 0280 	bic.w	r2, r2, #4194304	; 0x400000
 8000064:	601a      	str	r2, [r3, #0]
 8000066:	f640 0304 	movw	r3, #2052	; 0x804
 800006a:	f2c4 0301 	movt	r3, #16385	; 0x4001
 800006e:	f640 0204 	movw	r2, #2052	; 0x804
 8000072:	f2c4 0201 	movt	r2, #16385	; 0x4001
 8000076:	6812      	ldr	r2, [r2, #0]
 8000078:	f422 0200 	bic.w	r2, r2, #8388608	; 0x800000
 800007c:	601a      	str	r2, [r3, #0]
 800007e:	f640 030c 	movw	r3, #2060	; 0x80c
 8000082:	f2c4 0301 	movt	r3, #16385	; 0x4001
 8000086:	f640 020c 	movw	r2, #2060	; 0x80c
 800008a:	f2c4 0201 	movt	r2, #16385	; 0x4001
 800008e:	6812      	ldr	r2, [r2, #0]
 8000090:	f442 5200 	orr.w	r2, r2, #8192	; 0x2000
 8000094:	601a      	str	r2, [r3, #0]
 8000096:	f04f 0300 	mov.w	r3, #0
 800009a:	607b      	str	r3, [r7, #4]
 800009c:	e003      	b.n	80000a6 <main+0xa6>
 800009e:	687b      	ldr	r3, [r7, #4]
 80000a0:	f103 0301 	add.w	r3, r3, #1
 80000a4:	607b      	str	r3, [r7, #4]
 80000a6:	687a      	ldr	r2, [r7, #4]
 80000a8:	f240 13f3 	movw	r3, #499	; 0x1f3
 80000ac:	429a      	cmp	r2, r3
 80000ae:	ddf6      	ble.n	800009e <main+0x9e>
 80000b0:	f640 030c 	movw	r3, #2060	; 0x80c
 80000b4:	f2c4 0301 	movt	r3, #16385	; 0x4001
 80000b8:	f640 020c 	movw	r2, #2060	; 0x80c
 80000bc:	f2c4 0201 	movt	r2, #16385	; 0x4001
 80000c0:	6812      	ldr	r2, [r2, #0]
 80000c2:	f422 5200 	bic.w	r2, r2, #8192	; 0x2000
 80000c6:	601a      	str	r2, [r3, #0]
 80000c8:	f04f 0300 	mov.w	r3, #0
 80000cc:	603b      	str	r3, [r7, #0]
 80000ce:	e003      	b.n	80000d8 <main+0xd8>
 80000d0:	683b      	ldr	r3, [r7, #0]
 80000d2:	f103 0301 	add.w	r3, r3, #1
 80000d6:	603b      	str	r3, [r7, #0]
 80000d8:	683a      	ldr	r2, [r7, #0]
 80000da:	f240 13f3 	movw	r3, #499	; 0x1f3
 80000de:	429a      	cmp	r2, r3
 80000e0:	ddf6      	ble.n	80000d0 <main+0xd0>
 80000e2:	e7cc      	b.n	800007e <main+0x7e>
