
Toggle_LED_cortex_m3.elf:     file format elf32-littlearm


Disassembly of section .text:

08000000 <vectors>:
 8000000:	20001004 	andcs	r1, r0, r4
 8000004:	0800010d 	stmdaeq	r0, {r0, r2, r3, r8}
 8000008:	08000101 	stmdaeq	r0, {r0, r8}
 800000c:	08000101 	stmdaeq	r0, {r0, r8}
 8000010:	08000101 	stmdaeq	r0, {r0, r8}
 8000014:	08000101 	stmdaeq	r0, {r0, r8}
 8000018:	08000101 	stmdaeq	r0, {r0, r8}

0800001c <main>:
 800001c:	b480      	push	{r7}
 800001e:	b083      	sub	sp, #12
 8000020:	af00      	add	r7, sp, #0
 8000022:	f241 0318 	movw	r3, #4120	; 0x1018
 8000026:	f2c4 0302 	movt	r3, #16386	; 0x4002
 800002a:	f241 0218 	movw	r2, #4120	; 0x1018
 800002e:	f2c4 0202 	movt	r2, #16386	; 0x4002
 8000032:	6812      	ldr	r2, [r2, #0]
 8000034:	f042 0204 	orr.w	r2, r2, #4
 8000038:	601a      	str	r2, [r3, #0]
 800003a:	f640 0304 	movw	r3, #2052	; 0x804
 800003e:	f2c4 0301 	movt	r3, #16385	; 0x4001
 8000042:	f640 0204 	movw	r2, #2052	; 0x804
 8000046:	f2c4 0201 	movt	r2, #16385	; 0x4001
 800004a:	6812      	ldr	r2, [r2, #0]
 800004c:	f422 1280 	bic.w	r2, r2, #1048576	; 0x100000
 8000050:	601a      	str	r2, [r3, #0]
 8000052:	f640 0304 	movw	r3, #2052	; 0x804
 8000056:	f2c4 0301 	movt	r3, #16385	; 0x4001
 800005a:	f640 0204 	movw	r2, #2052	; 0x804
 800005e:	f2c4 0201 	movt	r2, #16385	; 0x4001
 8000062:	6812      	ldr	r2, [r2, #0]
 8000064:	f442 1200 	orr.w	r2, r2, #2097152	; 0x200000
 8000068:	601a      	str	r2, [r3, #0]
 800006a:	f640 0304 	movw	r3, #2052	; 0x804
 800006e:	f2c4 0301 	movt	r3, #16385	; 0x4001
 8000072:	f640 0204 	movw	r2, #2052	; 0x804
 8000076:	f2c4 0201 	movt	r2, #16385	; 0x4001
 800007a:	6812      	ldr	r2, [r2, #0]
 800007c:	f422 0280 	bic.w	r2, r2, #4194304	; 0x400000
 8000080:	601a      	str	r2, [r3, #0]
 8000082:	f640 0304 	movw	r3, #2052	; 0x804
 8000086:	f2c4 0301 	movt	r3, #16385	; 0x4001
 800008a:	f640 0204 	movw	r2, #2052	; 0x804
 800008e:	f2c4 0201 	movt	r2, #16385	; 0x4001
 8000092:	6812      	ldr	r2, [r2, #0]
 8000094:	f422 0200 	bic.w	r2, r2, #8388608	; 0x800000
 8000098:	601a      	str	r2, [r3, #0]
 800009a:	f640 030c 	movw	r3, #2060	; 0x80c
 800009e:	f2c4 0301 	movt	r3, #16385	; 0x4001
 80000a2:	f640 020c 	movw	r2, #2060	; 0x80c
 80000a6:	f2c4 0201 	movt	r2, #16385	; 0x4001
 80000aa:	6812      	ldr	r2, [r2, #0]
 80000ac:	f442 5200 	orr.w	r2, r2, #8192	; 0x2000
 80000b0:	601a      	str	r2, [r3, #0]
 80000b2:	f04f 0300 	mov.w	r3, #0
 80000b6:	607b      	str	r3, [r7, #4]
 80000b8:	e003      	b.n	80000c2 <main+0xa6>
 80000ba:	687b      	ldr	r3, [r7, #4]
 80000bc:	f103 0301 	add.w	r3, r3, #1
 80000c0:	607b      	str	r3, [r7, #4]
 80000c2:	687a      	ldr	r2, [r7, #4]
 80000c4:	f240 13f3 	movw	r3, #499	; 0x1f3
 80000c8:	429a      	cmp	r2, r3
 80000ca:	ddf6      	ble.n	80000ba <main+0x9e>
 80000cc:	f640 030c 	movw	r3, #2060	; 0x80c
 80000d0:	f2c4 0301 	movt	r3, #16385	; 0x4001
 80000d4:	f640 020c 	movw	r2, #2060	; 0x80c
 80000d8:	f2c4 0201 	movt	r2, #16385	; 0x4001
 80000dc:	6812      	ldr	r2, [r2, #0]
 80000de:	f422 5200 	bic.w	r2, r2, #8192	; 0x2000
 80000e2:	601a      	str	r2, [r3, #0]
 80000e4:	f04f 0300 	mov.w	r3, #0
 80000e8:	603b      	str	r3, [r7, #0]
 80000ea:	e003      	b.n	80000f4 <main+0xd8>
 80000ec:	683b      	ldr	r3, [r7, #0]
 80000ee:	f103 0301 	add.w	r3, r3, #1
 80000f2:	603b      	str	r3, [r7, #0]
 80000f4:	683a      	ldr	r2, [r7, #0]
 80000f6:	f240 13f3 	movw	r3, #499	; 0x1f3
 80000fa:	429a      	cmp	r2, r3
 80000fc:	ddf6      	ble.n	80000ec <main+0xd0>
 80000fe:	e7cc      	b.n	800009a <main+0x7e>

08000100 <Default_Hundler>:
 8000100:	b580      	push	{r7, lr}
 8000102:	af00      	add	r7, sp, #0
 8000104:	f000 f802 	bl	800010c <Reset_Hundler>
 8000108:	bd80      	pop	{r7, pc}
 800010a:	bf00      	nop

0800010c <Reset_Hundler>:
 800010c:	b580      	push	{r7, lr}
 800010e:	b086      	sub	sp, #24
 8000110:	af00      	add	r7, sp, #0
 8000112:	f240 0204 	movw	r2, #4
 8000116:	f2c2 0200 	movt	r2, #8192	; 0x2000
 800011a:	f240 0300 	movw	r3, #0
 800011e:	f2c2 0300 	movt	r3, #8192	; 0x2000
 8000122:	1ad3      	subs	r3, r2, r3
 8000124:	607b      	str	r3, [r7, #4]
 8000126:	f240 13bc 	movw	r3, #444	; 0x1bc
 800012a:	f6c0 0300 	movt	r3, #2048	; 0x800
 800012e:	617b      	str	r3, [r7, #20]
 8000130:	f240 0300 	movw	r3, #0
 8000134:	f2c2 0300 	movt	r3, #8192	; 0x2000
 8000138:	613b      	str	r3, [r7, #16]
 800013a:	f04f 0300 	mov.w	r3, #0
 800013e:	60fb      	str	r3, [r7, #12]
 8000140:	e00f      	b.n	8000162 <Reset_Hundler+0x56>
 8000142:	697b      	ldr	r3, [r7, #20]
 8000144:	781a      	ldrb	r2, [r3, #0]
 8000146:	693b      	ldr	r3, [r7, #16]
 8000148:	701a      	strb	r2, [r3, #0]
 800014a:	693b      	ldr	r3, [r7, #16]
 800014c:	f103 0301 	add.w	r3, r3, #1
 8000150:	613b      	str	r3, [r7, #16]
 8000152:	697b      	ldr	r3, [r7, #20]
 8000154:	f103 0301 	add.w	r3, r3, #1
 8000158:	617b      	str	r3, [r7, #20]
 800015a:	68fb      	ldr	r3, [r7, #12]
 800015c:	f103 0301 	add.w	r3, r3, #1
 8000160:	60fb      	str	r3, [r7, #12]
 8000162:	68fa      	ldr	r2, [r7, #12]
 8000164:	687b      	ldr	r3, [r7, #4]
 8000166:	429a      	cmp	r2, r3
 8000168:	d3eb      	bcc.n	8000142 <Reset_Hundler+0x36>
 800016a:	f240 0204 	movw	r2, #4
 800016e:	f2c2 0200 	movt	r2, #8192	; 0x2000
 8000172:	f240 0304 	movw	r3, #4
 8000176:	f2c2 0300 	movt	r3, #8192	; 0x2000
 800017a:	1ad3      	subs	r3, r2, r3
 800017c:	603b      	str	r3, [r7, #0]
 800017e:	f240 0304 	movw	r3, #4
 8000182:	f2c2 0300 	movt	r3, #8192	; 0x2000
 8000186:	613b      	str	r3, [r7, #16]
 8000188:	f04f 0300 	mov.w	r3, #0
 800018c:	60bb      	str	r3, [r7, #8]
 800018e:	e00b      	b.n	80001a8 <Reset_Hundler+0x9c>
 8000190:	693b      	ldr	r3, [r7, #16]
 8000192:	f04f 0200 	mov.w	r2, #0
 8000196:	701a      	strb	r2, [r3, #0]
 8000198:	693b      	ldr	r3, [r7, #16]
 800019a:	f103 0301 	add.w	r3, r3, #1
 800019e:	613b      	str	r3, [r7, #16]
 80001a0:	68bb      	ldr	r3, [r7, #8]
 80001a2:	f103 0301 	add.w	r3, r3, #1
 80001a6:	60bb      	str	r3, [r7, #8]
 80001a8:	68ba      	ldr	r2, [r7, #8]
 80001aa:	683b      	ldr	r3, [r7, #0]
 80001ac:	429a      	cmp	r2, r3
 80001ae:	d3ef      	bcc.n	8000190 <Reset_Hundler+0x84>
 80001b0:	f7ff ff34 	bl	800001c <main>
 80001b4:	f107 0718 	add.w	r7, r7, #24
 80001b8:	46bd      	mov	sp, r7
 80001ba:	bd80      	pop	{r7, pc}
